target datalayout = "e-m:e-p270:32:32-p271:32:32-p272:64:64-i64:64-i128:128-f80:128-n8:16:32:64-S128"
target triple = "x86_64-unknown-linux-gnu"

%struct.dirent = type { i64, i64, i16, i8, [256 x i8] }

@.str.2 = private unnamed_addr constant [2 x i8] c".\00", align 1
@.str.3 = private unnamed_addr constant [3 x i8] c"..\00", align 1

; Function Attrs: nounwind uwtable
define internal i32 @uv__fs_scandir_filter(ptr noundef %dent) #0 {
entry:
  %dent.addr = alloca ptr, align 8
  store ptr %dent, ptr %dent.addr, align 8
  %0 = load ptr, ptr %dent.addr, align 8
  %d_name = getelementptr inbounds %struct.dirent, ptr %0, i32 0, i32 4
  %arraydecay = getelementptr inbounds [256 x i8], ptr %d_name, i64 0, i64 0
  %call = call i32 @strcmp(ptr noundef %arraydecay, ptr noundef @.str.2) #10
  %cmp = icmp ne i32 %call, 0
  br i1 %cmp, label %land.rhs, label %land.end

land.rhs:                                         ; preds = %entry
  %1 = load ptr, ptr %dent.addr, align 8
  %d_name1 = getelementptr inbounds %struct.dirent, ptr %1, i32 0, i32 4
  %arraydecay2 = getelementptr inbounds [256 x i8], ptr %d_name1, i64 0, i64 0
  %call3 = call i32 @strcmp(ptr noundef %arraydecay2, ptr noundef @.str.3) #10
  %cmp4 = icmp ne i32 %call3, 0
  br label %land.end

land.end:                                         ; preds = %land.rhs, %entry
  %2 = phi i1 [ false, %entry ], [ %cmp4, %land.rhs ]
  %land.ext = zext i1 %2 to i32
  ret i32 %land.ext
}