; Function Attrs: mustprogress nofree norecurse nosync nounwind willreturn memory(argmem: read) uwtable
define internal range(i32 0, 2) i32 @uv__fs_scandir_filter(ptr noundef readonly captures(none) %dent) #4 {
entry:
  %d_name = getelementptr inbounds nuw i8, ptr %dent, i64 19
  %0 = load i8, ptr %d_name, align 1
  %.not = icmp eq i8 %0, 46
  br i1 %.not, label %entry.tail, label %land.end

entry.tail:                                       ; preds = %entry
  %1 = getelementptr inbounds nuw i8, ptr %dent, i64 20
  %2 = load i8, ptr %1, align 1
  %3 = icmp eq i8 %2, 0
  br i1 %3, label %land.end, label %sub_13

sub_13:                                           ; preds = %entry.tail
  %4 = getelementptr inbounds nuw i8, ptr %dent, i64 20
  %5 = load i8, ptr %4, align 1
  %.not6 = icmp eq i8 %5, 46
  br i1 %.not6, label %sub_2, label %land.end

sub_2:                                            ; preds = %sub_13
  %6 = getelementptr inbounds nuw i8, ptr %dent, i64 21
  %7 = load i8, ptr %6, align 1
  %8 = icmp ne i8 %7, 0
  %9 = zext i1 %8 to i32
  br label %land.end

land.end:                                         ; preds = %sub_2, %sub_13, %entry, %entry.tail
  %land.ext = phi i32 [ 0, %entry.tail ], [ 1, %sub_13 ], [ %9, %sub_2 ], [ 1, %entry ]
  ret i32 %land.ext
}